target datalayout = "e-m:e-p270:32:32-p271:32:32-p272:64:64-i64:64-i128:128-f80:128-n8:16:32:64-S128"
target triple = "x86_64-pc-linux-gnu"

%"class.google::protobuf::internal::LogMessage" = type { i32, ptr, i32, %"class.std::__cxx11::basic_string" }
%"class.std::__cxx11::basic_string" = type { %"struct.std::__cxx11::basic_string<char>::_Alloc_hider", i64, %union.anon }
%"struct.std::__cxx11::basic_string<char>::_Alloc_hider" = type { ptr }
%union.anon = type { i64, [8 x i8] }
%"class.google::protobuf::internal::LogFinisher" = type { i8 }
%"class.google::protobuf::internal::SerialArena::Block" = type { i64, i64, i64 }
%"class.google::protobuf::internal::SerialArena" = type { ptr, ptr, ptr, ptr, ptr, ptr, ptr, ptr, ptr }

@.str = private unnamed_addr constant [35 x i8] c"third_party/protobuf-lite/arena.cc\00", align 1
@.str.4 = private unnamed_addr constant [67 x i8] c"CHECK failed: (pos + ArenaImpl::kSerialArenaSize) <= (b->size()): \00", align 1
@.str.5 = private unnamed_addr constant [62 x i8] c"src/../third_party/protobuf-lite/google/protobuf/arena_impl.h\00", align 1
@.str.7 = private unnamed_addr constant [27 x i8] c"CHECK failed: n <= size_: \00", align 1

; Function Attrs: mustprogress nounwind uwtable
define linkonce_odr void @_ZN6google8protobuf8internal11SerialArena5Block7set_posEm(ptr noundef nonnull align 8 dereferenceable(24) %0, i64 noundef %1) #5 comdat align 2 {
  %3 = alloca ptr, align 8
  %4 = alloca i64, align 8
  store ptr %0, ptr %3, align 8, !tbaa !38
  store i64 %1, ptr %4, align 8, !tbaa !7
  %5 = load ptr, ptr %3, align 8
  %6 = load i64, ptr %4, align 8, !tbaa !7
  %7 = getelementptr inbounds nuw %"class.google::protobuf::internal::SerialArena::Block", ptr %5, i32 0, i32 1
  store i64 %6, ptr %7, align 8, !tbaa !53
  ret void
}

; Function Attrs: mustprogress uwtable
define linkonce_odr noundef ptr @_ZN6google8protobuf8internal11SerialArena5Block7PointerEm(ptr noundef nonnull align 8 dereferenceable(24) %0, i64 noundef %1) #7 comdat align 2 personality ptr @__gxx_personality_v0 {
  %3 = alloca ptr, align 8
  %4 = alloca i64, align 8
  %5 = alloca %"class.google::protobuf::internal::LogMessage", align 8
  %6 = alloca i1, align 1
  %7 = alloca i1, align 1
  %8 = alloca ptr, align 8
  %9 = alloca i32, align 4
  %10 = alloca %"class.google::protobuf::internal::LogFinisher", align 1
  store ptr %0, ptr %3, align 8, !tbaa !38
  store i64 %1, ptr %4, align 8, !tbaa !7
  %11 = load ptr, ptr %3, align 8
  br label %12

12:                                               ; preds = %29, %2
  br i1 false, label %13, label %45

13:                                               ; preds = %12
  %14 = load i64, ptr %4, align 8, !tbaa !7
  %15 = getelementptr inbounds nuw %"class.google::protobuf::internal::SerialArena::Block", ptr %11, i32 0, i32 2
  %16 = load i64, ptr %15, align 8, !tbaa !54
  %17 = icmp ule i64 %14, %16
  store i1 false, ptr %6, align 1
  store i1 false, ptr %7, align 1
  call void @llvm.lifetime.start.p0(i64 1, ptr %10) #3
  br i1 %17, label %18, label %19

18:                                               ; preds = %13
  br label %23

19:                                               ; preds = %13
  call void @llvm.lifetime.start.p0(i64 56, ptr %5) #3
  store i1 true, ptr %6, align 1
  call void @_ZN6google8protobuf8internal10LogMessageC1ENS0_8LogLevelEPKci(ptr noundef nonnull align 8 dereferenceable(56) %5, i32 noundef 3, ptr noundef @.str.5, i32 noundef 111)
  store i1 true, ptr %7, align 1
  %20 = invoke noundef nonnull align 8 dereferenceable(56) ptr @_ZN6google8protobuf8internal10LogMessagelsEPKc(ptr noundef nonnull align 8 dereferenceable(56) %5, ptr noundef @.str.7)
          to label %21 unwind label %30

21:                                               ; preds = %19
  invoke void @_ZN6google8protobuf8internal11LogFinisheraSERNS1_10LogMessageE(ptr noundef nonnull align 1 dereferenceable(1) %10, ptr noundef nonnull align 8 dereferenceable(56) %20)
          to label %22 unwind label %34

22:                                               ; preds = %21
  br label %23

23:                                               ; preds = %22, %18
  call void @llvm.lifetime.end.p0(i64 1, ptr %10) #3
  %24 = load i1, ptr %7, align 1
  br i1 %24, label %25, label %26

25:                                               ; preds = %23
  call void @_ZN6google8protobuf8internal10LogMessageD1Ev(ptr noundef nonnull align 8 dereferenceable(56) %5) #3
  br label %26

26:                                               ; preds = %25, %23
  %27 = load i1, ptr %6, align 1
  br i1 %27, label %28, label %29

28:                                               ; preds = %26
  call void @llvm.lifetime.end.p0(i64 56, ptr %5) #3
  br label %29

29:                                               ; preds = %28, %26
  br label %12, !llvm.loop !56

30:                                               ; preds = %19
  %31 = landingpad { ptr, i32 }
          cleanup
  %32 = extractvalue { ptr, i32 } %31, 0
  store ptr %32, ptr %8, align 8
  %33 = extractvalue { ptr, i32 } %31, 1
  store i32 %33, ptr %9, align 4
  br label %38

34:                                               ; preds = %21
  %35 = landingpad { ptr, i32 }
          cleanup
  %36 = extractvalue { ptr, i32 } %35, 0
  store ptr %36, ptr %8, align 8
  %37 = extractvalue { ptr, i32 } %35, 1
  store i32 %37, ptr %9, align 4
  call void @llvm.lifetime.end.p0(i64 1, ptr %10) #3
  br label %38

38:                                               ; preds = %34, %30
  %39 = load i1, ptr %7, align 1
  br i1 %39, label %40, label %41

40:                                               ; preds = %38
  call void @_ZN6google8protobuf8internal10LogMessageD1Ev(ptr noundef nonnull align 8 dereferenceable(56) %5) #3
  br label %41

41:                                               ; preds = %40, %38
  %42 = load i1, ptr %6, align 1
  br i1 %42, label %43, label %44

43:                                               ; preds = %41
  call void @llvm.lifetime.end.p0(i64 56, ptr %5) #3
  br label %44

44:                                               ; preds = %43, %41
  br label %48

45:                                               ; preds = %12
  %46 = load i64, ptr %4, align 8, !tbaa !7
  %47 = getelementptr inbounds nuw i8, ptr %11, i64 %46
  ret ptr %47

48:                                               ; preds = %44
  %49 = load ptr, ptr %8, align 8
  %50 = load i32, ptr %9, align 4
  %51 = insertvalue { ptr, i32 } poison, ptr %49, 0
  %52 = insertvalue { ptr, i32 } %51, i32 %50, 1
  resume { ptr, i32 } %52
}

; Function Attrs: mustprogress nounwind uwtable
define linkonce_odr noundef i64 @_ZNK6google8protobuf8internal11SerialArena5Block4sizeEv(ptr noundef nonnull align 8 dereferenceable(24) %0) #5 comdat align 2 {
  %2 = alloca ptr, align 8
  store ptr %0, ptr %2, align 8, !tbaa !38
  %3 = load ptr, ptr %2, align 8
  %4 = getelementptr inbounds nuw %"class.google::protobuf::internal::SerialArena::Block", ptr %3, i32 0, i32 2
  %5 = load i64, ptr %4, align 8, !tbaa !54
  ret i64 %5
}

; Function Attrs: mustprogress nounwind uwtable
define linkonce_odr noundef i64 @_ZNK6google8protobuf8internal11SerialArena5Block3posEv(ptr noundef nonnull align 8 dereferenceable(24) %0) #5 comdat align 2 {
  %2 = alloca ptr, align 8
  store ptr %0, ptr %2, align 8, !tbaa !38
  %3 = load ptr, ptr %2, align 8
  %4 = getelementptr inbounds nuw %"class.google::protobuf::internal::SerialArena::Block", ptr %3, i32 0, i32 1
  %5 = load i64, ptr %4, align 8, !tbaa !53
  ret i64 %5
}

; Function Attrs: mustprogress uwtable
define noundef ptr @_ZN6google8protobuf8internal11SerialArena3NewEPNS2_5BlockEPvPNS1_9ArenaImplE(ptr noundef %0, ptr noundef %1, ptr noundef %2) #7 align 2 personality ptr @__gxx_personality_v0 {
  %4 = alloca ptr, align 8
  %5 = alloca ptr, align 8
  %6 = alloca ptr, align 8
  %7 = alloca i64, align 8
  %8 = alloca %"class.google::protobuf::internal::LogMessage", align 8
  %9 = alloca i1, align 1
  %10 = alloca i1, align 1
  %11 = alloca ptr, align 8
  %12 = alloca i32, align 4
  %13 = alloca %"class.google::protobuf::internal::LogFinisher", align 1
  %14 = alloca ptr, align 8
  store ptr %0, ptr %4, align 8, !tbaa !38
  store ptr %1, ptr %5, align 8, !tbaa !3
  store ptr %2, ptr %6, align 8, !tbaa !9
  call void @llvm.lifetime.start.p0(i64 8, ptr %7) #3
  %15 = load ptr, ptr %4, align 8, !tbaa !38
  %16 = call noundef i64 @_ZNK6google8protobuf8internal11SerialArena5Block3posEv(ptr noundef nonnull align 8 dereferenceable(24) %15)
  store i64 %16, ptr %7, align 8, !tbaa !7
  br label %17

17:                                               ; preds = %35, %3
  br i1 false, label %18, label %51

18:                                               ; preds = %17
  %19 = load i64, ptr %7, align 8, !tbaa !7
  %20 = add i64 %19, 72
  %21 = load ptr, ptr %4, align 8, !tbaa !38
  %22 = call noundef i64 @_ZNK6google8protobuf8internal11SerialArena5Block4sizeEv(ptr noundef nonnull align 8 dereferenceable(24) %21)
  %23 = icmp ule i64 %20, %22
  store i1 false, ptr %9, align 1
  store i1 false, ptr %10, align 1
  call void @llvm.lifetime.start.p0(i64 1, ptr %13) #3
  br i1 %23, label %24, label %25

24:                                               ; preds = %18
  br label %29

25:                                               ; preds = %18
  call void @llvm.lifetime.start.p0(i64 56, ptr %8) #3
  store i1 true, ptr %9, align 1
  call void @_ZN6google8protobuf8internal10LogMessageC1ENS0_8LogLevelEPKci(ptr noundef nonnull align 8 dereferenceable(56) %8, i32 noundef 3, ptr noundef @.str, i32 noundef 398)
  store i1 true, ptr %10, align 1
  %26 = invoke noundef nonnull align 8 dereferenceable(56) ptr @_ZN6google8protobuf8internal10LogMessagelsEPKc(ptr noundef nonnull align 8 dereferenceable(56) %8, ptr noundef @.str.4)
          to label %27 unwind label %36

27:                                               ; preds = %25
  invoke void @_ZN6google8protobuf8internal11LogFinisheraSERNS1_10LogMessageE(ptr noundef nonnull align 1 dereferenceable(1) %13, ptr noundef nonnull align 8 dereferenceable(56) %26)
          to label %28 unwind label %40

28:                                               ; preds = %27
  br label %29

29:                                               ; preds = %28, %24
  call void @llvm.lifetime.end.p0(i64 1, ptr %13) #3
  %30 = load i1, ptr %10, align 1
  br i1 %30, label %31, label %32

31:                                               ; preds = %29
  call void @_ZN6google8protobuf8internal10LogMessageD1Ev(ptr noundef nonnull align 8 dereferenceable(56) %8) #3
  br label %32

32:                                               ; preds = %31, %29
  %33 = load i1, ptr %9, align 1
  br i1 %33, label %34, label %35

34:                                               ; preds = %32
  call void @llvm.lifetime.end.p0(i64 56, ptr %8) #3
  br label %35

35:                                               ; preds = %34, %32
  br label %17, !llvm.loop !69

36:                                               ; preds = %25
  %37 = landingpad { ptr, i32 }
          cleanup
  %38 = extractvalue { ptr, i32 } %37, 0
  store ptr %38, ptr %11, align 8
  %39 = extractvalue { ptr, i32 } %37, 1
  store i32 %39, ptr %12, align 4
  br label %44

40:                                               ; preds = %27
  %41 = landingpad { ptr, i32 }
          cleanup
  %42 = extractvalue { ptr, i32 } %41, 0
  store ptr %42, ptr %11, align 8
  %43 = extractvalue { ptr, i32 } %41, 1
  store i32 %43, ptr %12, align 4
  call void @llvm.lifetime.end.p0(i64 1, ptr %13) #3
  br label %44

44:                                               ; preds = %40, %36
  %45 = load i1, ptr %10, align 1
  br i1 %45, label %46, label %47

46:                                               ; preds = %44
  call void @_ZN6google8protobuf8internal10LogMessageD1Ev(ptr noundef nonnull align 8 dereferenceable(56) %8) #3
  br label %47

47:                                               ; preds = %46, %44
  %48 = load i1, ptr %9, align 1
  br i1 %48, label %49, label %50

49:                                               ; preds = %47
  call void @llvm.lifetime.end.p0(i64 56, ptr %8) #3
  br label %50

50:                                               ; preds = %49, %47
  call void @llvm.lifetime.end.p0(i64 8, ptr %7) #3
  br label %86

51:                                               ; preds = %17
  call void @llvm.lifetime.start.p0(i64 8, ptr %14) #3
  %52 = load ptr, ptr %4, align 8, !tbaa !38
  %53 = load i64, ptr %7, align 8, !tbaa !7
  %54 = call noundef ptr @_ZN6google8protobuf8internal11SerialArena5Block7PointerEm(ptr noundef nonnull align 8 dereferenceable(24) %52, i64 noundef %53)
  store ptr %54, ptr %14, align 8, !tbaa !62
  %55 = load ptr, ptr %4, align 8, !tbaa !38
  %56 = load i64, ptr %7, align 8, !tbaa !7
  %57 = add i64 %56, 72
  call void @_ZN6google8protobuf8internal11SerialArena5Block7set_posEm(ptr noundef nonnull align 8 dereferenceable(24) %55, i64 noundef %57)
  %58 = load ptr, ptr %6, align 8, !tbaa !9
  %59 = load ptr, ptr %14, align 8, !tbaa !62
  %60 = getelementptr inbounds nuw %"class.google::protobuf::internal::SerialArena", ptr %59, i32 0, i32 0
  store ptr %58, ptr %60, align 8, !tbaa !70
  %61 = load ptr, ptr %5, align 8, !tbaa !3
  %62 = load ptr, ptr %14, align 8, !tbaa !62
  %63 = getelementptr inbounds nuw %"class.google::protobuf::internal::SerialArena", ptr %62, i32 0, i32 1
  store ptr %61, ptr %63, align 8, !tbaa !74
  %64 = load ptr, ptr %4, align 8, !tbaa !38
  %65 = load ptr, ptr %14, align 8, !tbaa !62
  %66 = getelementptr inbounds nuw %"class.google::protobuf::internal::SerialArena", ptr %65, i32 0, i32 2
  store ptr %64, ptr %66, align 8, !tbaa !75
  %67 = load ptr, ptr %4, align 8, !tbaa !38
  %68 = load ptr, ptr %4, align 8, !tbaa !38
  %69 = call noundef i64 @_ZNK6google8protobuf8internal11SerialArena5Block3posEv(ptr noundef nonnull align 8 dereferenceable(24) %68)
  %70 = call noundef ptr @_ZN6google8protobuf8internal11SerialArena5Block7PointerEm(ptr noundef nonnull align 8 dereferenceable(24) %67, i64 noundef %69)
  %71 = load ptr, ptr %14, align 8, !tbaa !62
  %72 = getelementptr inbounds nuw %"class.google::protobuf::internal::SerialArena", ptr %71, i32 0, i32 5
  store ptr %70, ptr %72, align 8, !tbaa !76
  %73 = load ptr, ptr %4, align 8, !tbaa !38
  %74 = load ptr, ptr %4, align 8, !tbaa !38
  %75 = call noundef i64 @_ZNK6google8protobuf8internal11SerialArena5Block4sizeEv(ptr noundef nonnull align 8 dereferenceable(24) %74)
  %76 = call noundef ptr @_ZN6google8protobuf8internal11SerialArena5Block7PointerEm(ptr noundef nonnull align 8 dereferenceable(24) %73, i64 noundef %75)
  %77 = load ptr, ptr %14, align 8, !tbaa !62
  %78 = getelementptr inbounds nuw %"class.google::protobuf::internal::SerialArena", ptr %77, i32 0, i32 6
  store ptr %76, ptr %78, align 8, !tbaa !77
  %79 = load ptr, ptr %14, align 8, !tbaa !62
  %80 = getelementptr inbounds nuw %"class.google::protobuf::internal::SerialArena", ptr %79, i32 0, i32 3
  store ptr null, ptr %80, align 8, !tbaa !78
  %81 = load ptr, ptr %14, align 8, !tbaa !62
  %82 = getelementptr inbounds nuw %"class.google::protobuf::internal::SerialArena", ptr %81, i32 0, i32 7
  store ptr null, ptr %82, align 8, !tbaa !79
  %83 = load ptr, ptr %14, align 8, !tbaa !62
  %84 = getelementptr inbounds nuw %"class.google::protobuf::internal::SerialArena", ptr %83, i32 0, i32 8
  store ptr null, ptr %84, align 8, !tbaa !80
  %85 = load ptr, ptr %14, align 8, !tbaa !62
  call void @llvm.lifetime.end.p0(i64 8, ptr %14) #3
  call void @llvm.lifetime.end.p0(i64 8, ptr %7) #3
  ret ptr %85

86:                                               ; preds = %50
  %87 = load ptr, ptr %11, align 8
  %88 = load i32, ptr %12, align 4
  %89 = insertvalue { ptr, i32 } poison, ptr %87, 0
  %90 = insertvalue { ptr, i32 } %89, i32 %88, 1
  resume { ptr, i32 } %90
}