; Function Attrs: mustprogress nofree norecurse nosync nounwind willreturn memory(argmem: readwrite) uwtable
define noundef ptr @_ZN6google8protobuf8internal11SerialArena3NewEPNS2_5BlockEPvPNS1_9ArenaImplE(ptr noundef %0, ptr noundef %1, ptr noundef %2) local_unnamed_addr #10 align 2 personality ptr @__gxx_personality_v0 {
  %4 = getelementptr inbounds nuw i8, ptr %0, i64 8
  %5 = load i64, ptr %4, align 8, !tbaa !36
  %6 = getelementptr inbounds nuw i8, ptr %0, i64 %5
  %7 = add i64 %5, 72
  store i64 %7, ptr %4, align 8, !tbaa !36
  store ptr %2, ptr %6, align 8, !tbaa !41
  %8 = getelementptr inbounds nuw i8, ptr %6, i64 8
  store ptr %1, ptr %8, align 8, !tbaa !47
  %9 = getelementptr inbounds nuw i8, ptr %6, i64 16
  store ptr %0, ptr %9, align 8, !tbaa !48
  %10 = getelementptr inbounds nuw i8, ptr %0, i64 %7
  %11 = getelementptr inbounds nuw i8, ptr %6, i64 40
  store ptr %10, ptr %11, align 8, !tbaa !49
  %12 = getelementptr inbounds nuw i8, ptr %0, i64 16
  %13 = load i64, ptr %12, align 8, !tbaa !25
  %14 = getelementptr inbounds nuw i8, ptr %0, i64 %13
  %15 = getelementptr inbounds nuw i8, ptr %6, i64 48
  store ptr %14, ptr %15, align 8, !tbaa !50
  %16 = getelementptr inbounds nuw i8, ptr %6, i64 24
  store ptr null, ptr %16, align 8, !tbaa !53
  %17 = getelementptr inbounds nuw i8, ptr %6, i64 56
  tail call void @llvm.memset.p0.i64(ptr noundef nonnull align 8 dereferenceable(16) %17, i8 0, i64 16, i1 false)
  ret ptr %6
}